; Function Attrs: mustprogress nofree norecurse nosync nounwind willreturn memory(read, inaccessiblemem: none) uwtable
define noundef zeroext i1 @_ZNK10open_spiel3nim8NimState7IsEmptyEv(ptr noundef nonnull readonly align 8 captures(none) dereferenceable(108) %0) local_unnamed_addr #6 align 2 {
  %2 = getelementptr inbounds nuw i8, ptr %0, i64 64
  %3 = load ptr, ptr %2, align 8
  %4 = getelementptr inbounds nuw i8, ptr %0, i64 72
  %5 = load ptr, ptr %4, align 8
  %.not5.i = icmp eq ptr %3, %5
  br i1 %.not5.i, label %_ZSt10accumulateIN9__gnu_cxx17__normal_iteratorIPKiSt6vectorIiSaIiEEEEiET0_T_S9_S8_.exit, label %.lr.ph.i

.lr.ph.i:                                         ; preds = %1, %.lr.ph.i
  %.07.i = phi i32 [ %7, %.lr.ph.i ], [ 0, %1 ]
  %.sroa.02.06.i = phi ptr [ %8, %.lr.ph.i ], [ %3, %1 ]
  %6 = load i32, ptr %.sroa.02.06.i, align 4
  %7 = add nsw i32 %6, %.07.i
  %8 = getelementptr inbounds nuw i8, ptr %.sroa.02.06.i, i64 4
  %.not.i = icmp eq ptr %8, %5
  br i1 %.not.i, label %_ZSt10accumulateIN9__gnu_cxx17__normal_iteratorIPKiSt6vectorIiSaIiEEEEiET0_T_S9_S8_.exit.loopexit, label %.lr.ph.i, !llvm.loop !20

_ZSt10accumulateIN9__gnu_cxx17__normal_iteratorIPKiSt6vectorIiSaIiEEEEiET0_T_S9_S8_.exit.loopexit: ; preds = %.lr.ph.i
  %9 = icmp eq i32 %7, 0
  br label %_ZSt10accumulateIN9__gnu_cxx17__normal_iteratorIPKiSt6vectorIiSaIiEEEEiET0_T_S9_S8_.exit

_ZSt10accumulateIN9__gnu_cxx17__normal_iteratorIPKiSt6vectorIiSaIiEEEEiET0_T_S9_S8_.exit: ; preds = %_ZSt10accumulateIN9__gnu_cxx17__normal_iteratorIPKiSt6vectorIiSaIiEEEEiET0_T_S9_S8_.exit.loopexit, %1
  %.0.lcssa.i = phi i1 [ true, %1 ], [ %9, %_ZSt10accumulateIN9__gnu_cxx17__normal_iteratorIPKiSt6vectorIiSaIiEEEEiET0_T_S9_S8_.exit.loopexit ]
  ret i1 %.0.lcssa.i
}